target datalayout = "e-m:e-p270:32:32-p271:32:32-p272:64:64-i64:64-i128:128-f80:128-n8:16:32:64-S128"
target triple = "x86_64-pc-linux-gnu"

%struct.ScanTable = type { ptr, [64 x i8], [64 x i8] }

; Function Attrs: cold nounwind optsize uwtable
define void @ff_init_scantable(ptr noundef %0, ptr noundef %1, ptr noundef %2) #0 {
  %4 = alloca ptr, align 8
  %5 = alloca ptr, align 8
  %6 = alloca ptr, align 8
  %7 = alloca i32, align 4
  %8 = alloca i32, align 4
  %9 = alloca i32, align 4
  store ptr %0, ptr %4, align 8, !tbaa !4
  store ptr %1, ptr %5, align 8, !tbaa !9
  store ptr %2, ptr %6, align 8, !tbaa !4
  %10 = load ptr, ptr %6, align 8, !tbaa !4
  %11 = load ptr, ptr %5, align 8, !tbaa !9
  %12 = getelementptr inbounds nuw %struct.ScanTable, ptr %11, i32 0, i32 0
  store ptr %10, ptr %12, align 8, !tbaa !11
  call void @llvm.lifetime.start.p0(i64 4, ptr %7) #7
  store i32 0, ptr %7, align 4, !tbaa !13
  call void @llvm.lifetime.start.p0(i64 4, ptr %8) #7
  store i32 -1, ptr %8, align 4, !tbaa !13
  br label %13

13:                                               ; preds = %57, %3
  %14 = load i32, ptr %7, align 4, !tbaa !13
  %15 = icmp slt i32 %14, 64
  br i1 %15, label %17, label %16

16:                                               ; preds = %13
  call void @llvm.lifetime.end.p0(i64 4, ptr %8) #7
  call void @llvm.lifetime.end.p0(i64 4, ptr %7) #7
  br label %60

17:                                               ; preds = %13
  call void @llvm.lifetime.start.p0(i64 4, ptr %9) #7
  %18 = load ptr, ptr %6, align 8, !tbaa !4
  %19 = load i32, ptr %7, align 4, !tbaa !13
  %20 = sext i32 %19 to i64
  %21 = getelementptr inbounds i8, ptr %18, i64 %20
  %22 = load i8, ptr %21, align 1, !tbaa !15
  %23 = zext i8 %22 to i32
  store i32 %23, ptr %9, align 4, !tbaa !13
  %24 = load ptr, ptr %4, align 8, !tbaa !4
  %25 = load i32, ptr %9, align 4, !tbaa !13
  %26 = sext i32 %25 to i64
  %27 = getelementptr inbounds i8, ptr %24, i64 %26
  %28 = load i8, ptr %27, align 1, !tbaa !15
  %29 = load ptr, ptr %5, align 8, !tbaa !9
  %30 = getelementptr inbounds nuw %struct.ScanTable, ptr %29, i32 0, i32 1
  %31 = load i32, ptr %7, align 4, !tbaa !13
  %32 = sext i32 %31 to i64
  %33 = getelementptr inbounds [64 x i8], ptr %30, i64 0, i64 %32
  store i8 %28, ptr %33, align 1, !tbaa !15
  %34 = load ptr, ptr %4, align 8, !tbaa !4
  %35 = load i32, ptr %9, align 4, !tbaa !13
  %36 = sext i32 %35 to i64
  %37 = getelementptr inbounds i8, ptr %34, i64 %36
  %38 = load i8, ptr %37, align 1, !tbaa !15
  %39 = zext i8 %38 to i32
  %40 = load i32, ptr %8, align 4, !tbaa !13
  %41 = icmp sgt i32 %39, %40
  br i1 %41, label %42, label %49

42:                                               ; preds = %17
  %43 = load ptr, ptr %4, align 8, !tbaa !4
  %44 = load i32, ptr %9, align 4, !tbaa !13
  %45 = sext i32 %44 to i64
  %46 = getelementptr inbounds i8, ptr %43, i64 %45
  %47 = load i8, ptr %46, align 1, !tbaa !15
  %48 = zext i8 %47 to i32
  store i32 %48, ptr %8, align 4, !tbaa !13
  br label %49

49:                                               ; preds = %42, %17
  %50 = load i32, ptr %8, align 4, !tbaa !13
  %51 = trunc i32 %50 to i8
  %52 = load ptr, ptr %5, align 8, !tbaa !9
  %53 = getelementptr inbounds nuw %struct.ScanTable, ptr %52, i32 0, i32 2
  %54 = load i32, ptr %7, align 4, !tbaa !13
  %55 = sext i32 %54 to i64
  %56 = getelementptr inbounds [64 x i8], ptr %53, i64 0, i64 %55
  store i8 %51, ptr %56, align 1, !tbaa !15
  call void @llvm.lifetime.end.p0(i64 4, ptr %9) #7
  br label %57

57:                                               ; preds = %49
  %58 = load i32, ptr %7, align 4, !tbaa !13
  %59 = add nsw i32 %58, 1
  store i32 %59, ptr %7, align 4, !tbaa !13
  br label %13, !llvm.loop !16

60:                                               ; preds = %16
  ret void
}