; Function Attrs: cold nofree norecurse nosync nounwind optsize memory(argmem: readwrite) uwtable
define void @ff_init_scantable(ptr noundef readonly captures(none) %0, ptr noundef writeonly captures(none) initializes((0, 8)) %1, ptr noundef %2) local_unnamed_addr #0 {
  store ptr %2, ptr %1, align 8, !tbaa !4
  %4 = getelementptr inbounds nuw i8, ptr %1, i64 8
  %5 = getelementptr inbounds nuw i8, ptr %1, i64 72
  br label %7

6:                                                ; preds = %7
  ret void

7:                                                ; preds = %3, %7
  %indvars.iv = phi i64 [ 0, %3 ], [ %indvars.iv.next, %7 ]
  %.01719 = phi i32 [ -1, %3 ], [ %spec.select, %7 ]
  %8 = getelementptr inbounds nuw i8, ptr %2, i64 %indvars.iv
  %9 = load i8, ptr %8, align 1, !tbaa !10
  %10 = zext i8 %9 to i64
  %11 = getelementptr inbounds nuw i8, ptr %0, i64 %10
  %12 = load i8, ptr %11, align 1, !tbaa !10
  %13 = getelementptr inbounds nuw [64 x i8], ptr %4, i64 0, i64 %indvars.iv
  store i8 %12, ptr %13, align 1, !tbaa !10
  %14 = zext i8 %12 to i32
  %spec.select = tail call i32 @llvm.smax.i32(i32 %.01719, i32 %14)
  %15 = trunc nuw i32 %spec.select to i8
  %16 = getelementptr inbounds nuw [64 x i8], ptr %5, i64 0, i64 %indvars.iv
  store i8 %15, ptr %16, align 1, !tbaa !10
  %indvars.iv.next = add nuw nsw i64 %indvars.iv, 1
  %exitcond.not = icmp eq i64 %indvars.iv.next, 64
  br i1 %exitcond.not, label %6, label %7, !llvm.loop !11
}